target datalayout = "e-m:e-p270:32:32-p271:32:32-p272:64:64-i64:64-i128:128-f80:128-n8:16:32:64-S128"
target triple = "x86_64-pc-linux-gnu"

%struct.png_struct_def = type { [1 x %struct.__jmp_buf_tag], ptr, ptr, i64, ptr, ptr, ptr, ptr, ptr, ptr, ptr, ptr, i8, i8, i32, i32, i32, i32, %struct.z_stream_s, i32, i32, i32, i32, i64, i32, i32, i32, ptr, ptr, i64, i32, i32, ptr, i16, i32, i16, i8, i8, i8, i8, i8, i8, i8, i8, i8, i8, i8, i8, i8, i8, i16, i8, i32, %struct.png_color_16_struct, %struct.png_color_16_struct, i32, i32, ptr, ptr, ptr, ptr, ptr, ptr, %struct.png_color_8_struct, %struct.png_color_8_struct, ptr, %struct.png_color_16_struct, ptr, ptr, ptr, ptr, ptr, ptr, ptr, ptr, ptr, i32, i32, i64, i64, i64, i64, i32, i32, ptr, ptr, [29 x i8], i32, ptr, ptr, i32, i32, ptr, i8, i8, i16, i16, ptr, i32, i8, ptr, ptr, ptr, ptr, ptr, ptr, ptr, i8, i32, i32, i32, i64, %struct.png_unknown_chunk_t, i64, ptr, i64, i32, i32, ptr, [4 x ptr], %struct.png_colorspace }
%struct.__jmp_buf_tag = type { [8 x i64], i32, %struct.__sigset_t }
%struct.__sigset_t = type { [16 x i64] }
%struct.z_stream_s = type { ptr, i32, i64, ptr, i32, i64, ptr, ptr, ptr, ptr, ptr, i32, i64, i64 }
%struct.png_color_8_struct = type { i8, i8, i8, i8, i8 }
%struct.png_color_16_struct = type { i8, i16, i16, i16, i16 }
%struct.png_unknown_chunk_t = type { [5 x i8], ptr, i64, i8 }
%struct.png_colorspace = type { i32, %struct.png_xy, %struct.png_XYZ, i16, i16 }
%struct.png_xy = type { i32, i32, i32, i32, i32, i32, i32, i32 }
%struct.png_XYZ = type { i32, i32, i32, i32, i32, i32, i32, i32, i32 }

@.str.6 = private unnamed_addr constant [36 x i8] c"invalid file gamma in png_set_gamma\00", align 1
@.str.7 = private unnamed_addr constant [38 x i8] c"invalid screen gamma in png_set_gamma\00", align 1
@.str.19 = private unnamed_addr constant [59 x i8] c"invalid after png_start_read_image or png_read_update_info\00", align 1
@.str.20 = private unnamed_addr constant [44 x i8] c"invalid before the PNG header has been read\00", align 1

; Function Attrs: nounwind uwtable
define internal i32 @translate_gamma_flags(ptr noalias noundef %0, i32 noundef %1, i32 noundef %2) #0 {
  %4 = alloca ptr, align 8
  %5 = alloca i32, align 4
  %6 = alloca i32, align 4
  store ptr %0, ptr %4, align 8
  store i32 %1, ptr %5, align 4
  store i32 %2, ptr %6, align 4
  %7 = load i32, ptr %5, align 4
  %8 = icmp eq i32 %7, -1
  br i1 %8, label %12, label %9

9:                                                ; preds = %3
  %10 = load i32, ptr %5, align 4
  %11 = icmp eq i32 %10, -100000
  br i1 %11, label %12, label %22

12:                                               ; preds = %9, %3
  %13 = load ptr, ptr %4, align 8
  %14 = getelementptr inbounds %struct.png_struct_def, ptr %13, i32 0, i32 15
  %15 = load i32, ptr %14, align 8
  %16 = or i32 %15, 4096
  store i32 %16, ptr %14, align 8
  %17 = load i32, ptr %6, align 4
  %18 = icmp ne i32 %17, 0
  br i1 %18, label %19, label %20

19:                                               ; preds = %12
  store i32 220000, ptr %5, align 4
  br label %21

20:                                               ; preds = %12
  store i32 45455, ptr %5, align 4
  br label %21

21:                                               ; preds = %20, %19
  br label %35

22:                                               ; preds = %9
  %23 = load i32, ptr %5, align 4
  %24 = icmp eq i32 %23, -2
  br i1 %24, label %28, label %25

25:                                               ; preds = %22
  %26 = load i32, ptr %5, align 4
  %27 = icmp eq i32 %26, -50000
  br i1 %27, label %28, label %34

28:                                               ; preds = %25, %22
  %29 = load i32, ptr %6, align 4
  %30 = icmp ne i32 %29, 0
  br i1 %30, label %31, label %32

31:                                               ; preds = %28
  store i32 151724, ptr %5, align 4
  br label %33

32:                                               ; preds = %28
  store i32 65909, ptr %5, align 4
  br label %33

33:                                               ; preds = %32, %31
  br label %34

34:                                               ; preds = %33, %25
  br label %35

35:                                               ; preds = %34, %21
  %36 = load i32, ptr %5, align 4
  ret i32 %36
}

; Function Attrs: nounwind uwtable
define internal i32 @png_rtran_ok(ptr noalias noundef %0, i32 noundef %1) #0 {
  %3 = alloca i32, align 4
  %4 = alloca ptr, align 8
  %5 = alloca i32, align 4
  store ptr %0, ptr %4, align 8
  store i32 %1, ptr %5, align 4
  %6 = load ptr, ptr %4, align 8
  %7 = icmp ne ptr %6, null
  br i1 %7, label %8, label %34

8:                                                ; preds = %2
  %9 = load ptr, ptr %4, align 8
  %10 = getelementptr inbounds %struct.png_struct_def, ptr %9, i32 0, i32 15
  %11 = load i32, ptr %10, align 8
  %12 = and i32 %11, 64
  %13 = icmp ne i32 %12, 0
  br i1 %13, label %14, label %16

14:                                               ; preds = %8
  %15 = load ptr, ptr %4, align 8
  call void @png_app_error(ptr noundef %15, ptr noundef @.str.19)
  br label %33

16:                                               ; preds = %8
  %17 = load i32, ptr %5, align 4
  %18 = icmp ne i32 %17, 0
  br i1 %18, label %19, label %27

19:                                               ; preds = %16
  %20 = load ptr, ptr %4, align 8
  %21 = getelementptr inbounds %struct.png_struct_def, ptr %20, i32 0, i32 14
  %22 = load i32, ptr %21, align 4
  %23 = and i32 %22, 1
  %24 = icmp eq i32 %23, 0
  br i1 %24, label %25, label %27

25:                                               ; preds = %19
  %26 = load ptr, ptr %4, align 8
  call void @png_app_error(ptr noundef %26, ptr noundef @.str.20)
  br label %32

27:                                               ; preds = %19, %16
  %28 = load ptr, ptr %4, align 8
  %29 = getelementptr inbounds %struct.png_struct_def, ptr %28, i32 0, i32 15
  %30 = load i32, ptr %29, align 8
  %31 = or i32 %30, 16384
  store i32 %31, ptr %29, align 8
  store i32 1, ptr %3, align 4
  br label %35

32:                                               ; preds = %25
  br label %33

33:                                               ; preds = %32, %14
  br label %34

34:                                               ; preds = %33, %2
  store i32 0, ptr %3, align 4
  br label %35

35:                                               ; preds = %34, %27
  %36 = load i32, ptr %3, align 4
  ret i32 %36
}

; Function Attrs: nounwind uwtable
define hidden void @png_set_gamma_fixed(ptr noalias noundef %0, i32 noundef %1, i32 noundef %2) #0 {
  %4 = alloca ptr, align 8
  %5 = alloca i32, align 4
  %6 = alloca i32, align 4
  store ptr %0, ptr %4, align 8
  store i32 %1, ptr %5, align 4
  store i32 %2, ptr %6, align 4
  %7 = load ptr, ptr %4, align 8
  %8 = call i32 @png_rtran_ok(ptr noundef %7, i32 noundef 0)
  %9 = icmp eq i32 %8, 0
  br i1 %9, label %10, label %11

10:                                               ; preds = %3
  br label %42

11:                                               ; preds = %3
  %12 = load ptr, ptr %4, align 8
  %13 = load i32, ptr %5, align 4
  %14 = call i32 @translate_gamma_flags(ptr noundef %12, i32 noundef %13, i32 noundef 1)
  store i32 %14, ptr %5, align 4
  %15 = load ptr, ptr %4, align 8
  %16 = load i32, ptr %6, align 4
  %17 = call i32 @translate_gamma_flags(ptr noundef %15, i32 noundef %16, i32 noundef 0)
  store i32 %17, ptr %6, align 4
  %18 = load i32, ptr %6, align 4
  %19 = icmp sle i32 %18, 0
  br i1 %19, label %20, label %22

20:                                               ; preds = %11
  %21 = load ptr, ptr %4, align 8
  call void @png_error(ptr noundef %21, ptr noundef @.str.6) #6
  unreachable

22:                                               ; preds = %11
  %23 = load i32, ptr %5, align 4
  %24 = icmp sle i32 %23, 0
  br i1 %24, label %25, label %27

25:                                               ; preds = %22
  %26 = load ptr, ptr %4, align 8
  call void @png_error(ptr noundef %26, ptr noundef @.str.7) #6
  unreachable

27:                                               ; preds = %22
  %28 = load i32, ptr %6, align 4
  %29 = load ptr, ptr %4, align 8
  %30 = getelementptr inbounds %struct.png_struct_def, ptr %29, i32 0, i32 120
  %31 = getelementptr inbounds %struct.png_colorspace, ptr %30, i32 0, i32 0
  store i32 %28, ptr %31, align 8
  %32 = load ptr, ptr %4, align 8
  %33 = getelementptr inbounds %struct.png_struct_def, ptr %32, i32 0, i32 120
  %34 = getelementptr inbounds %struct.png_colorspace, ptr %33, i32 0, i32 4
  %35 = load i16, ptr %34, align 2
  %36 = zext i16 %35 to i32
  %37 = or i32 %36, 1
  %38 = trunc i32 %37 to i16
  store i16 %38, ptr %34, align 2
  %39 = load i32, ptr %5, align 4
  %40 = load ptr, ptr %4, align 8
  %41 = getelementptr inbounds %struct.png_struct_def, ptr %40, i32 0, i32 56
  store i32 %39, ptr %41, align 8
  br label %42

42:                                               ; preds = %27, %10
  ret void
}