; Function Attrs: nounwind uwtable
define hidden void @png_set_gamma_fixed(ptr noalias noundef %0, i32 noundef %1, i32 noundef %2) local_unnamed_addr #0 {
  %.not.i = icmp eq ptr %0, null
  br i1 %.not.i, label %png_rtran_ok.exit.thread, label %4

4:                                                ; preds = %3
  %5 = getelementptr inbounds i8, ptr %0, i64 296
  %6 = load i32, ptr %5, align 8, !alias.scope !57
  %7 = and i32 %6, 64
  %.not8.i = icmp eq i32 %7, 0
  br i1 %.not8.i, label %9, label %8

8:                                                ; preds = %4
  tail call void @png_app_error(ptr noundef nonnull %0, ptr noundef nonnull @.str.19) #11
  br label %png_rtran_ok.exit.thread

9:                                                ; preds = %4
  %10 = or i32 %6, 16384
  store i32 %10, ptr %5, align 8, !alias.scope !57
  switch i32 %1, label %translate_gamma_flags.exit [
    i32 -1, label %11
    i32 -100000, label %11
    i32 -2, label %13
    i32 -50000, label %13
  ]

11:                                               ; preds = %9, %9
  %12 = or i32 %6, 20480
  store i32 %12, ptr %5, align 8, !alias.scope !60
  br label %translate_gamma_flags.exit

13:                                               ; preds = %9, %9
  br label %translate_gamma_flags.exit

translate_gamma_flags.exit:                       ; preds = %9, %11, %13
  %14 = phi i32 [ %12, %11 ], [ %10, %13 ], [ %10, %9 ]
  %.0.i14 = phi i32 [ 220000, %11 ], [ 151724, %13 ], [ %1, %9 ]
  switch i32 %2, label %translate_gamma_flags.exit16 [
    i32 -1, label %15
    i32 -100000, label %15
    i32 -2, label %translate_gamma_flags.exit16.thread
    i32 -50000, label %translate_gamma_flags.exit16.thread
  ]

15:                                               ; preds = %translate_gamma_flags.exit, %translate_gamma_flags.exit
  %16 = or i32 %14, 4096
  store i32 %16, ptr %5, align 8, !alias.scope !63
  br label %translate_gamma_flags.exit16.thread

translate_gamma_flags.exit16:                     ; preds = %translate_gamma_flags.exit
  %17 = icmp slt i32 %2, 1
  br i1 %17, label %18, label %translate_gamma_flags.exit16.thread

18:                                               ; preds = %translate_gamma_flags.exit16
  tail call void @png_error(ptr noundef nonnull %0, ptr noundef nonnull @.str.6) #12
  unreachable

translate_gamma_flags.exit16.thread:              ; preds = %translate_gamma_flags.exit, %translate_gamma_flags.exit, %15, %translate_gamma_flags.exit16
  %.0.i1519 = phi i32 [ %2, %translate_gamma_flags.exit16 ], [ 45455, %15 ], [ 65909, %translate_gamma_flags.exit ], [ 65909, %translate_gamma_flags.exit ]
  %19 = icmp slt i32 %.0.i14, 1
  br i1 %19, label %20, label %21

20:                                               ; preds = %translate_gamma_flags.exit16.thread
  tail call void @png_error(ptr noundef nonnull %0, ptr noundef nonnull @.str.7) #12
  unreachable

21:                                               ; preds = %translate_gamma_flags.exit16.thread
  %22 = getelementptr inbounds i8, ptr %0, i64 1072
  store i32 %.0.i1519, ptr %22, align 8
  %23 = getelementptr inbounds i8, ptr %0, i64 1146
  %24 = load i16, ptr %23, align 2
  %25 = or i16 %24, 1
  store i16 %25, ptr %23, align 2
  %26 = getelementptr inbounds i8, ptr %0, i64 560
  store i32 %.0.i14, ptr %26, align 8
  br label %png_rtran_ok.exit.thread

png_rtran_ok.exit.thread:                         ; preds = %3, %8, %21
  ret void
}